; Function Attrs: nounwind uwtable
define double @php_combined_lcg() local_unnamed_addr #0 {
  %1 = load ptr, ptr @random_globals, align 8
  %2 = load i8, ptr getelementptr inbounds (%struct._zend_random_globals, ptr @random_globals, i64 0, i32 1), align 8
  %3 = and i8 %2, 1
  %.not = icmp eq i8 %3, 0
  br i1 %.not, label %4, label %5

4:                                                ; preds = %0
  tail call void @php_random_combinedlcg_seed_default(ptr noundef %1) #13
  store i8 1, ptr getelementptr inbounds (%struct._zend_random_globals, ptr @random_globals, i64 0, i32 1), align 8
  br label %5

5:                                                ; preds = %4, %0
  %6 = load ptr, ptr getelementptr inbounds (%struct._php_random_algo, ptr @php_random_algo_combinedlcg, i64 0, i32 1), align 8
  %7 = tail call { i64, i64 } %6(ptr noundef %1) #13
  %8 = extractvalue { i64, i64 } %7, 0
  %9 = uitofp i64 %8 to double
  %10 = fmul double %9, 0x3E00000007510C0E
  ret double %10
}